; Function Attrs: nounwind uwtable
define void @lv_obj_destruct(ptr noundef %0) local_unnamed_addr #0 {
  %.pre = load ptr, ptr %0, align 8, !tbaa !13
  br label %tailrecurse

tailrecurse:                                      ; preds = %9, %1
  %2 = phi ptr [ %8, %9 ], [ %.pre, %1 ]
  %3 = getelementptr inbounds nuw i8, ptr %2, i64 16
  %4 = load ptr, ptr %3, align 8, !tbaa !50
  %.not = icmp eq ptr %4, null
  br i1 %.not, label %6, label %5

5:                                                ; preds = %tailrecurse
  tail call void %4(ptr noundef nonnull %2, ptr noundef nonnull %0) #3
  %.pre10 = load ptr, ptr %0, align 8, !tbaa !13
  br label %6

6:                                                ; preds = %5, %tailrecurse
  %7 = phi ptr [ %.pre10, %5 ], [ %2, %tailrecurse ]
  %8 = load ptr, ptr %7, align 8, !tbaa !3
  %.not9 = icmp eq ptr %8, null
  br i1 %.not9, label %10, label %9

9:                                                ; preds = %6
  store ptr %8, ptr %0, align 8, !tbaa !13
  br label %tailrecurse

10:                                               ; preds = %6
  ret void
}